; ModuleID = '44/1269.c'
source_filename = "44/1269.c"
target datalayout = "e-m:e-p270:32:32-p271:32:32-p272:64:64-i64:64-f80:128-n8:16:32:64-S128"
target triple = "x86_64-pc-linux-gnu"

@.str = private unnamed_addr constant [3 x i8] c"%d\00", align 1
@.str.1 = private unnamed_addr constant [4 x i8] c"%d\0A\00", align 1

; Function Attrs: noinline nounwind uwtable
define dso_local void @main() #0 {
  %1 = alloca i32, align 4
  %2 = alloca i32, align 4
  store i32 0, i32* %2, align 4
  br label %3

3:                                                ; preds = %12, %0
  %4 = load i32, i32* %2, align 4
  %5 = icmp slt i32 %4, 6
  br i1 %5, label %6, label %15

6:                                                ; preds = %3
  %7 = call i32 (i8*, ...) @__isoc99_scanf(i8* getelementptr inbounds ([3 x i8], [3 x i8]* @.str, i64 0, i64 0), i32* %1)
  %8 = load i32, i32* %1, align 4
  %9 = call i32 @reverse(i32 %8)
  store i32 %9, i32* %1, align 4
  %10 = load i32, i32* %1, align 4
  %11 = call i32 (i8*, ...) @printf(i8* getelementptr inbounds ([4 x i8], [4 x i8]* @.str.1, i64 0, i64 0), i32 %10)
  br label %12

12:                                               ; preds = %6
  %13 = load i32, i32* %2, align 4
  %14 = add nsw i32 %13, 1
  store i32 %14, i32* %2, align 4
  br label %3

15:                                               ; preds = %3
  ret void
}

declare dso_local i32 @__isoc99_scanf(i8*, ...) #1

; Function Attrs: noinline nounwind uwtable
define dso_local i32 @reverse(i32 %0) #0 {
  %2 = alloca i32, align 4
  %3 = alloca i32, align 4
  %4 = alloca [5 x i32], align 16
  %5 = alloca i32, align 4
  %6 = alloca i32, align 4
  %7 = alloca i32, align 4
  %8 = alloca i32, align 4
  store i32 %0, i32* %3, align 4
  store i32 1, i32* %8, align 4
  %9 = load i32, i32* %3, align 4
  %10 = icmp eq i32 %9, 0
  br i1 %10, label %11, label %13

11:                                               ; preds = %1
  %12 = load i32, i32* %3, align 4
  store i32 %12, i32* %2, align 4
  br label %119

13:                                               ; preds = %1
  %14 = load i32, i32* %3, align 4
  %15 = icmp slt i32 %14, 0
  br i1 %15, label %16, label %17

16:                                               ; preds = %13
  store i32 -1, i32* %8, align 4
  br label %17

17:                                               ; preds = %16, %13
  %18 = load i32, i32* %3, align 4
  %19 = load i32, i32* %8, align 4
  %20 = mul nsw i32 %18, %19
  store i32 %20, i32* %3, align 4
  %21 = load i32, i32* %3, align 4
  %22 = sitofp i32 %21 to double
  %23 = call double @log10(double %22) #3
  %24 = fptosi double %23 to i32
  store i32 %24, i32* %5, align 4
  store i32 0, i32* %6, align 4
  br label %25

25:                                               ; preds = %57, %17
  %26 = load i32, i32* %6, align 4
  %27 = load i32, i32* %5, align 4
  %28 = icmp sle i32 %26, %27
  br i1 %28, label %29, label %60

29:                                               ; preds = %25
  %30 = load i32, i32* %3, align 4
  %31 = sitofp i32 %30 to double
  %32 = load i32, i32* %5, align 4
  %33 = load i32, i32* %6, align 4
  %34 = sub nsw i32 %32, %33
  %35 = sitofp i32 %34 to double
  %36 = call double @pow(double 1.000000e+01, double %35) #3
  %37 = fdiv double %31, %36
  %38 = fptosi double %37 to i32
  %39 = load i32, i32* %6, align 4
  %40 = sext i32 %39 to i64
  %41 = getelementptr inbounds [5 x i32], [5 x i32]* %4, i64 0, i64 %40
  store i32 %38, i32* %41, align 4
  %42 = load i32, i32* %3, align 4
  %43 = sitofp i32 %42 to double
  %44 = load i32, i32* %6, align 4
  %45 = sext i32 %44 to i64
  %46 = getelementptr inbounds [5 x i32], [5 x i32]* %4, i64 0, i64 %45
  %47 = load i32, i32* %46, align 4
  %48 = sitofp i32 %47 to double
  %49 = load i32, i32* %5, align 4
  %50 = load i32, i32* %6, align 4
  %51 = sub nsw i32 %49, %50
  %52 = sitofp i32 %51 to double
  %53 = call double @pow(double 1.000000e+01, double %52) #3
  %54 = fmul double %48, %53
  %55 = fsub double %43, %54
  %56 = fptosi double %55 to i32
  store i32 %56, i32* %3, align 4
  br label %57

57:                                               ; preds = %29
  %58 = load i32, i32* %6, align 4
  %59 = add nsw i32 %58, 1
  store i32 %59, i32* %6, align 4
  br label %25

60:                                               ; preds = %25
  store i32 0, i32* %6, align 4
  br label %61

61:                                               ; preds = %87, %60
  %62 = load i32, i32* %6, align 4
  %63 = load i32, i32* %5, align 4
  %64 = sdiv i32 %63, 2
  %65 = add nsw i32 %64, 1
  %66 = icmp slt i32 %62, %65
  br i1 %66, label %67, label %90

67:                                               ; preds = %61
  %68 = load i32, i32* %6, align 4
  %69 = sext i32 %68 to i64
  %70 = getelementptr inbounds [5 x i32], [5 x i32]* %4, i64 0, i64 %69
  %71 = load i32, i32* %70, align 4
  store i32 %71, i32* %7, align 4
  %72 = load i32, i32* %5, align 4
  %73 = load i32, i32* %6, align 4
  %74 = sub nsw i32 %72, %73
  %75 = sext i32 %74 to i64
  %76 = getelementptr inbounds [5 x i32], [5 x i32]* %4, i64 0, i64 %75
  %77 = load i32, i32* %76, align 4
  %78 = load i32, i32* %6, align 4
  %79 = sext i32 %78 to i64
  %80 = getelementptr inbounds [5 x i32], [5 x i32]* %4, i64 0, i64 %79
  store i32 %77, i32* %80, align 4
  %81 = load i32, i32* %7, align 4
  %82 = load i32, i32* %5, align 4
  %83 = load i32, i32* %6, align 4
  %84 = sub nsw i32 %82, %83
  %85 = sext i32 %84 to i64
  %86 = getelementptr inbounds [5 x i32], [5 x i32]* %4, i64 0, i64 %85
  store i32 %81, i32* %86, align 4
  br label %87

87:                                               ; preds = %67
  %88 = load i32, i32* %6, align 4
  %89 = add nsw i32 %88, 1
  store i32 %89, i32* %6, align 4
  br label %61

90:                                               ; preds = %61
  store i32 0, i32* %6, align 4
  br label %91

91:                                               ; preds = %111, %90
  %92 = load i32, i32* %6, align 4
  %93 = load i32, i32* %5, align 4
  %94 = icmp sle i32 %92, %93
  br i1 %94, label %95, label %114

95:                                               ; preds = %91
  %96 = load i32, i32* %3, align 4
  %97 = sitofp i32 %96 to double
  %98 = load i32, i32* %6, align 4
  %99 = sext i32 %98 to i64
  %100 = getelementptr inbounds [5 x i32], [5 x i32]* %4, i64 0, i64 %99
  %101 = load i32, i32* %100, align 4
  %102 = sitofp i32 %101 to double
  %103 = load i32, i32* %5, align 4
  %104 = load i32, i32* %6, align 4
  %105 = sub nsw i32 %103, %104
  %106 = sitofp i32 %105 to double
  %107 = call double @pow(double 1.000000e+01, double %106) #3
  %108 = fmul double %102, %107
  %109 = fadd double %97, %108
  %110 = fptosi double %109 to i32
  store i32 %110, i32* %3, align 4
  br label %111

111:                                              ; preds = %95
  %112 = load i32, i32* %6, align 4
  %113 = add nsw i32 %112, 1
  store i32 %113, i32* %6, align 4
  br label %91

114:                                              ; preds = %91
  %115 = load i32, i32* %3, align 4
  %116 = load i32, i32* %8, align 4
  %117 = mul nsw i32 %115, %116
  store i32 %117, i32* %3, align 4
  %118 = load i32, i32* %3, align 4
  store i32 %118, i32* %2, align 4
  br label %119

119:                                              ; preds = %114, %11
  %120 = load i32, i32* %2, align 4
  ret i32 %120
}

declare dso_local i32 @printf(i8*, ...) #1

; Function Attrs: nounwind
declare dso_local double @log10(double) #2

; Function Attrs: nounwind
declare dso_local double @pow(double, double) #2


!llvm.module.flags = !{!0}
!llvm.ident = !{!1}

!0 = !{i32 1, !"wchar_size", i32 4}
!1 = !{!"clang version 10.0.0-4ubuntu1 "}
